target datalayout = "e-m:e-p270:32:32-p271:32:32-p272:64:64-i64:64-i128:128-f80:128-n8:16:32:64-S128"
target triple = "x86_64-pc-linux-gnu"

%"class.cv::dpm::ParalComputePyramid" = type { %"class.cv::ParallelLoopBody", ptr, %"class.cv::Size_", ptr, ptr }
%"class.cv::ParallelLoopBody" = type { ptr }
%"class.cv::Size_" = type { double, double }

@_ZTVN2cv3dpm19ParalComputePyramidE = hidden unnamed_addr constant { [5 x ptr] } { [5 x ptr] [ptr null, ptr @_ZTIN2cv3dpm19ParalComputePyramidE, ptr @_ZN2cv16ParallelLoopBodyD2Ev, ptr @_ZN2cv3dpm19ParalComputePyramidD0Ev, ptr @_ZNK2cv3dpm19ParalComputePyramidclERKNS_5RangeE] }, align 8
@_ZTVN2cv16ParallelLoopBodyE = available_externally unnamed_addr constant { [5 x ptr] } { [5 x ptr] [ptr null, ptr @_ZTIN2cv16ParallelLoopBodyE, ptr @_ZN2cv16ParallelLoopBodyD1Ev, ptr @_ZN2cv16ParallelLoopBodyD0Ev, ptr @__cxa_pure_virtual] }, align 8

; Function Attrs: inlinehint mustprogress nounwind uwtable
define linkonce_odr hidden void @_ZN2cv5Size_IdEC2Ev(ptr noundef nonnull align 8 dereferenceable(16) %0) unnamed_addr #5 comdat align 2 {
  %2 = alloca ptr, align 8
  store ptr %0, ptr %2, align 8, !tbaa !50
  %3 = load ptr, ptr %2, align 8
  %4 = getelementptr inbounds nuw %"class.cv::Size_", ptr %3, i32 0, i32 0
  store double 0.000000e+00, ptr %4, align 8, !tbaa !52
  %5 = getelementptr inbounds nuw %"class.cv::Size_", ptr %3, i32 0, i32 1
  store double 0.000000e+00, ptr %5, align 8, !tbaa !53
  ret void
}

; Function Attrs: inlinehint mustprogress nounwind uwtable
define linkonce_odr hidden void @_ZN2cv16ParallelLoopBodyC2Ev(ptr noundef nonnull align 8 dereferenceable(8) %0) unnamed_addr #5 comdat align 2 {
  %2 = alloca ptr, align 8
  store ptr %0, ptr %2, align 8, !tbaa !48
  %3 = load ptr, ptr %2, align 8
  store ptr getelementptr inbounds inrange(-16, 24) ({ [5 x ptr] }, ptr @_ZTVN2cv16ParallelLoopBodyE, i32 0, i32 0, i32 2), ptr %3, align 8, !tbaa !46
  ret void
}

; Function Attrs: mustprogress uwtable
define hidden void @_ZN2cv3dpm19ParalComputePyramidC2ERKNS_3MatERSt6vectorIS2_SaIS2_EERNS0_16PyramidParameterE(ptr noundef nonnull align 8 dereferenceable(48) %0, ptr noundef nonnull align 8 dereferenceable(96) %1, ptr noundef nonnull align 8 dereferenceable(24) %2, ptr noundef nonnull align 8 dereferenceable(56) %3) unnamed_addr #0 align 2 personality ptr @__gxx_personality_v0 {
  %5 = alloca ptr, align 8
  %6 = alloca ptr, align 8
  %7 = alloca ptr, align 8
  %8 = alloca ptr, align 8
  %9 = alloca ptr, align 8
  %10 = alloca i32, align 4
  store ptr %0, ptr %5, align 8, !tbaa !30
  store ptr %1, ptr %6, align 8, !tbaa !24
  store ptr %2, ptr %7, align 8, !tbaa !26
  store ptr %3, ptr %8, align 8, !tbaa !8
  %11 = load ptr, ptr %5, align 8
  call void @_ZN2cv16ParallelLoopBodyC2Ev(ptr noundef nonnull align 8 dereferenceable(8) %11) #17
  store ptr getelementptr inbounds inrange(-16, 24) ({ [5 x ptr] }, ptr @_ZTVN2cv3dpm19ParalComputePyramidE, i32 0, i32 0, i32 2), ptr %11, align 8, !tbaa !46
  %12 = getelementptr inbounds nuw %"class.cv::dpm::ParalComputePyramid", ptr %11, i32 0, i32 1
  %13 = load ptr, ptr %6, align 8, !tbaa !24
  store ptr %13, ptr %12, align 8, !tbaa !24
  %14 = getelementptr inbounds nuw %"class.cv::dpm::ParalComputePyramid", ptr %11, i32 0, i32 2
  invoke void @_ZN2cv5Size_IdEC2Ev(ptr noundef nonnull align 8 dereferenceable(16) %14)
          to label %15 unwind label %20

15:                                               ; preds = %4
  %16 = getelementptr inbounds nuw %"class.cv::dpm::ParalComputePyramid", ptr %11, i32 0, i32 3
  %17 = load ptr, ptr %7, align 8, !tbaa !26
  store ptr %17, ptr %16, align 8, !tbaa !26
  %18 = getelementptr inbounds nuw %"class.cv::dpm::ParalComputePyramid", ptr %11, i32 0, i32 4
  %19 = load ptr, ptr %8, align 8, !tbaa !8
  store ptr %19, ptr %18, align 8, !tbaa !8
  ret void

20:                                               ; preds = %4
  %21 = landingpad { ptr, i32 }
          cleanup
  %22 = extractvalue { ptr, i32 } %21, 0
  store ptr %22, ptr %9, align 8
  %23 = extractvalue { ptr, i32 } %21, 1
  store i32 %23, ptr %10, align 4
  call void @_ZN2cv16ParallelLoopBodyD2Ev(ptr noundef nonnull align 8 dereferenceable(8) %11) #17
  br label %24

24:                                               ; preds = %20
  %25 = load ptr, ptr %9, align 8
  %26 = load i32, ptr %10, align 4
  %27 = insertvalue { ptr, i32 } poison, ptr %25, 0
  %28 = insertvalue { ptr, i32 } %27, i32 %26, 1
  resume { ptr, i32 } %28
}