; Function Attrs: mustprogress nofree norecurse nosync nounwind willreturn memory(argmem: write) uwtable
define hidden void @_ZN2cv3dpm19ParalComputePyramidC2ERKNS_3MatERSt6vectorIS2_SaIS2_EERNS0_16PyramidParameterE(ptr noundef nonnull writeonly align 8 captures(none) dereferenceable(48) initializes((0, 48)) %0, ptr noundef nonnull align 8 dereferenceable(96) %1, ptr noundef nonnull align 8 dereferenceable(24) %2, ptr noundef nonnull align 8 dereferenceable(56) %3) unnamed_addr #0 align 2 personality ptr @__gxx_personality_v0 {
  store ptr getelementptr inbounds nuw inrange(-16, 24) (i8, ptr @_ZTVN2cv3dpm19ParalComputePyramidE, i64 16), ptr %0, align 8, !tbaa !25
  %5 = getelementptr inbounds nuw i8, ptr %0, i64 8
  store ptr %1, ptr %5, align 8, !tbaa !27
  %6 = getelementptr inbounds nuw i8, ptr %0, i64 16
  tail call void @llvm.memset.p0.i64(ptr noundef nonnull align 8 dereferenceable(16) %6, i8 0, i64 16, i1 false)
  %7 = getelementptr inbounds nuw i8, ptr %0, i64 32
  store ptr %2, ptr %7, align 8, !tbaa !29
  %8 = getelementptr inbounds nuw i8, ptr %0, i64 40
  store ptr %3, ptr %8, align 8, !tbaa !31
  ret void
}